target datalayout = "e-m:e-p270:32:32-p271:32:32-p272:64:64-i64:64-i128:128-f80:128-n8:16:32:64-S128"
target triple = "x86_64-pc-linux-gnu"

%struct.CONF_VALUE = type { ptr, ptr, ptr }

@.str = private unnamed_addr constant [32 x i8] c"../openssl/crypto/x509/v3_utl.c\00", align 1
@__func__.x509v3_add_len_value = private unnamed_addr constant [21 x i8] c"x509v3_add_len_value\00", align 1

; Function Attrs: inlinehint nounwind uwtable
define internal ptr @ossl_check_CONF_VALUE_type(ptr noundef %0) #4 {
  %2 = alloca ptr, align 8
  store ptr %0, ptr %2, align 8, !tbaa !12
  %3 = load ptr, ptr %2, align 8, !tbaa !12
  ret ptr %3
}

; Function Attrs: inlinehint nounwind uwtable
define internal ptr @ossl_check_CONF_VALUE_sk_type(ptr noundef %0) #4 {
  %2 = alloca ptr, align 8
  store ptr %0, ptr %2, align 8, !tbaa !13
  %3 = load ptr, ptr %2, align 8, !tbaa !13
  ret ptr %3
}

; Function Attrs: nounwind uwtable
define internal i32 @x509v3_add_len_value(ptr noundef %0, ptr noundef %1, i64 noundef %2, ptr noundef %3) #0 {
  %5 = alloca i32, align 4
  %6 = alloca ptr, align 8
  %7 = alloca ptr, align 8
  %8 = alloca i64, align 8
  %9 = alloca ptr, align 8
  %10 = alloca ptr, align 8
  %11 = alloca ptr, align 8
  %12 = alloca ptr, align 8
  %13 = alloca i32, align 4
  %14 = alloca i32, align 4
  store ptr %0, ptr %6, align 8, !tbaa !3
  store ptr %1, ptr %7, align 8, !tbaa !3
  store i64 %2, ptr %8, align 8, !tbaa !10
  store ptr %3, ptr %9, align 8, !tbaa !8
  call void @llvm.lifetime.start.p0(i64 8, ptr %10) #8
  store ptr null, ptr %10, align 8, !tbaa !12
  call void @llvm.lifetime.start.p0(i64 8, ptr %11) #8
  store ptr null, ptr %11, align 8, !tbaa !3
  call void @llvm.lifetime.start.p0(i64 8, ptr %12) #8
  store ptr null, ptr %12, align 8, !tbaa !3
  call void @llvm.lifetime.start.p0(i64 4, ptr %13) #8
  %15 = load ptr, ptr %9, align 8, !tbaa !8
  %16 = load ptr, ptr %15, align 8, !tbaa !13
  %17 = icmp eq ptr %16, null
  %18 = zext i1 %17 to i32
  store i32 %18, ptr %13, align 4, !tbaa !15
  %19 = load ptr, ptr %6, align 8, !tbaa !3
  %20 = icmp ne ptr %19, null
  br i1 %20, label %21, label %26

21:                                               ; preds = %4
  %22 = load ptr, ptr %6, align 8, !tbaa !3
  %23 = call noalias ptr @CRYPTO_strdup(ptr noundef %22, ptr noundef @.str, i32 noundef 47)
  store ptr %23, ptr %11, align 8, !tbaa !3
  %24 = icmp eq ptr %23, null
  br i1 %24, label %25, label %26

25:                                               ; preds = %21
  br label %73

26:                                               ; preds = %21, %4
  %27 = load ptr, ptr %7, align 8, !tbaa !3
  %28 = icmp ne ptr %27, null
  br i1 %28, label %29, label %43

29:                                               ; preds = %26
  %30 = load ptr, ptr %7, align 8, !tbaa !3
  %31 = load i64, ptr %8, align 8, !tbaa !10
  %32 = call ptr @memchr(ptr noundef %30, i32 noundef 0, i64 noundef %31) #7
  %33 = icmp ne ptr %32, null
  br i1 %33, label %34, label %35

34:                                               ; preds = %29
  br label %73

35:                                               ; preds = %29
  %36 = load ptr, ptr %7, align 8, !tbaa !3
  %37 = load i64, ptr %8, align 8, !tbaa !10
  %38 = call noalias ptr @CRYPTO_strndup(ptr noundef %36, i64 noundef %37, ptr noundef @.str, i32 noundef 53)
  store ptr %38, ptr %12, align 8, !tbaa !3
  %39 = load ptr, ptr %12, align 8, !tbaa !3
  %40 = icmp eq ptr %39, null
  br i1 %40, label %41, label %42

41:                                               ; preds = %35
  br label %73

42:                                               ; preds = %35
  br label %43

43:                                               ; preds = %42, %26
  %44 = call noalias ptr @CRYPTO_malloc(i64 noundef 24, ptr noundef @.str, i32 noundef 57)
  store ptr %44, ptr %10, align 8, !tbaa !12
  %45 = icmp eq ptr %44, null
  br i1 %45, label %46, label %47

46:                                               ; preds = %43
  br label %73

47:                                               ; preds = %43
  %48 = load i32, ptr %13, align 4, !tbaa !15
  %49 = icmp ne i32 %48, 0
  br i1 %49, label %50, label %55

50:                                               ; preds = %47
  %51 = call ptr @OPENSSL_sk_new_null()
  %52 = load ptr, ptr %9, align 8, !tbaa !8
  store ptr %51, ptr %52, align 8, !tbaa !13
  %53 = icmp eq ptr %51, null
  br i1 %53, label %54, label %55

54:                                               ; preds = %50
  call void @ERR_new()
  call void @ERR_set_debug(ptr noundef @.str, i32 noundef 60, ptr noundef @__func__.x509v3_add_len_value)
  call void (i32, i32, ptr, ...) @ERR_set_error(i32 noundef 34, i32 noundef 524303, ptr noundef null)
  br label %73

55:                                               ; preds = %50, %47
  %56 = load ptr, ptr %10, align 8, !tbaa !12
  %57 = getelementptr inbounds nuw %struct.CONF_VALUE, ptr %56, i32 0, i32 0
  store ptr null, ptr %57, align 8, !tbaa !17
  %58 = load ptr, ptr %11, align 8, !tbaa !3
  %59 = load ptr, ptr %10, align 8, !tbaa !12
  %60 = getelementptr inbounds nuw %struct.CONF_VALUE, ptr %59, i32 0, i32 1
  store ptr %58, ptr %60, align 8, !tbaa !19
  %61 = load ptr, ptr %12, align 8, !tbaa !3
  %62 = load ptr, ptr %10, align 8, !tbaa !12
  %63 = getelementptr inbounds nuw %struct.CONF_VALUE, ptr %62, i32 0, i32 2
  store ptr %61, ptr %63, align 8, !tbaa !20
  %64 = load ptr, ptr %9, align 8, !tbaa !8
  %65 = load ptr, ptr %64, align 8, !tbaa !13
  %66 = call ptr @ossl_check_CONF_VALUE_sk_type(ptr noundef %65)
  %67 = load ptr, ptr %10, align 8, !tbaa !12
  %68 = call ptr @ossl_check_CONF_VALUE_type(ptr noundef %67)
  %69 = call i32 @OPENSSL_sk_push(ptr noundef %66, ptr noundef %68)
  %70 = icmp ne i32 %69, 0
  br i1 %70, label %72, label %71

71:                                               ; preds = %55
  br label %73

72:                                               ; preds = %55
  store i32 1, ptr %5, align 4
  store i32 1, ptr %14, align 4
  br label %85

73:                                               ; preds = %71, %54, %46, %41, %34, %25
  %74 = load i32, ptr %13, align 4, !tbaa !15
  %75 = icmp ne i32 %74, 0
  br i1 %75, label %76, label %81

76:                                               ; preds = %73
  %77 = load ptr, ptr %9, align 8, !tbaa !8
  %78 = load ptr, ptr %77, align 8, !tbaa !13
  %79 = call ptr @ossl_check_CONF_VALUE_sk_type(ptr noundef %78)
  call void @OPENSSL_sk_free(ptr noundef %79)
  %80 = load ptr, ptr %9, align 8, !tbaa !8
  store ptr null, ptr %80, align 8, !tbaa !13
  br label %81

81:                                               ; preds = %76, %73
  %82 = load ptr, ptr %10, align 8, !tbaa !12
  call void @CRYPTO_free(ptr noundef %82, ptr noundef @.str, i32 noundef 74)
  %83 = load ptr, ptr %11, align 8, !tbaa !3
  call void @CRYPTO_free(ptr noundef %83, ptr noundef @.str, i32 noundef 75)
  %84 = load ptr, ptr %12, align 8, !tbaa !3
  call void @CRYPTO_free(ptr noundef %84, ptr noundef @.str, i32 noundef 76)
  store i32 0, ptr %5, align 4
  store i32 1, ptr %14, align 4
  br label %85

85:                                               ; preds = %81, %72
  call void @llvm.lifetime.end.p0(i64 4, ptr %13) #8
  call void @llvm.lifetime.end.p0(i64 8, ptr %12) #8
  call void @llvm.lifetime.end.p0(i64 8, ptr %11) #8
  call void @llvm.lifetime.end.p0(i64 8, ptr %10) #8
  %86 = load i32, ptr %5, align 4
  ret i32 %86
}