; Function Attrs: nounwind uwtable
define internal fastcc range(i32 0, 2) i32 @x509v3_add_len_value(ptr noundef %0, ptr noundef %1, i64 noundef %2, ptr noundef captures(none) %3) unnamed_addr #0 {
  %5 = load ptr, ptr %3, align 8, !tbaa !3
  %6 = icmp eq ptr %5, null
  %.not = icmp eq ptr %0, null
  br i1 %.not, label %10, label %7

7:                                                ; preds = %4
  %8 = tail call noalias ptr @CRYPTO_strdup(ptr noundef nonnull %0, ptr noundef nonnull @.str, i32 noundef 47) #12
  %9 = icmp eq ptr %8, null
  br i1 %9, label %28, label %10

10:                                               ; preds = %7, %4
  %.025 = phi ptr [ %8, %7 ], [ null, %4 ]
  %.not36 = icmp eq ptr %1, null
  br i1 %.not36, label %16, label %11

11:                                               ; preds = %10
  %12 = tail call ptr @memchr(ptr noundef nonnull %1, i32 noundef 0, i64 noundef %2) #11
  %.not37 = icmp eq ptr %12, null
  br i1 %.not37, label %13, label %28

13:                                               ; preds = %11
  %14 = tail call noalias ptr @CRYPTO_strndup(ptr noundef nonnull %1, i64 noundef %2, ptr noundef nonnull @.str, i32 noundef 53) #12
  %15 = icmp eq ptr %14, null
  br i1 %15, label %28, label %16

16:                                               ; preds = %13, %10
  %.1 = phi ptr [ %14, %13 ], [ null, %10 ]
  %17 = tail call noalias ptr @CRYPTO_malloc(i64 noundef 24, ptr noundef nonnull @.str, i32 noundef 57) #12
  %18 = icmp eq ptr %17, null
  br i1 %18, label %28, label %19

19:                                               ; preds = %16
  br i1 %6, label %20, label %._crit_edge

._crit_edge:                                      ; preds = %19
  %.pre = load ptr, ptr %3, align 8, !tbaa !3
  br label %23

20:                                               ; preds = %19
  %21 = tail call ptr @OPENSSL_sk_new_null() #12
  store ptr %21, ptr %3, align 8, !tbaa !3
  %22 = icmp eq ptr %21, null
  br i1 %22, label %.thread, label %23

.thread:                                          ; preds = %20
  tail call void @ERR_new() #12
  tail call void @ERR_set_debug(ptr noundef nonnull @.str, i32 noundef 60, ptr noundef nonnull @__func__.x509v3_add_len_value) #12
  tail call void (i32, i32, ptr, ...) @ERR_set_error(i32 noundef 34, i32 noundef 524303, ptr noundef null) #12
  br label %29

23:                                               ; preds = %._crit_edge, %20
  %24 = phi ptr [ %.pre, %._crit_edge ], [ %21, %20 ]
  store ptr null, ptr %17, align 8, !tbaa !8
  %25 = getelementptr inbounds nuw i8, ptr %17, i64 8
  store ptr %.025, ptr %25, align 8, !tbaa !11
  %26 = getelementptr inbounds nuw i8, ptr %17, i64 16
  store ptr %.1, ptr %26, align 8, !tbaa !12
  %27 = tail call i32 @OPENSSL_sk_push(ptr noundef %24, ptr noundef nonnull %17) #12
  %.not38 = icmp eq i32 %27, 0
  br i1 %.not38, label %28, label %32

28:                                               ; preds = %23, %16, %13, %11, %7
  %.027 = phi ptr [ null, %7 ], [ null, %11 ], [ null, %13 ], [ null, %16 ], [ %17, %23 ]
  %.126 = phi ptr [ null, %7 ], [ %.025, %11 ], [ %.025, %13 ], [ %.025, %16 ], [ %.025, %23 ]
  %.024 = phi ptr [ null, %7 ], [ null, %11 ], [ null, %13 ], [ %.1, %16 ], [ %.1, %23 ]
  br i1 %6, label %29, label %31

29:                                               ; preds = %.thread, %28
  %.02447 = phi ptr [ %.1, %.thread ], [ %.024, %28 ]
  %.12645 = phi ptr [ %.025, %.thread ], [ %.126, %28 ]
  %.02743 = phi ptr [ %17, %.thread ], [ %.027, %28 ]
  %30 = load ptr, ptr %3, align 8, !tbaa !3
  tail call void @OPENSSL_sk_free(ptr noundef %30) #12
  store ptr null, ptr %3, align 8, !tbaa !3
  br label %31

31:                                               ; preds = %29, %28
  %.02446 = phi ptr [ %.02447, %29 ], [ %.024, %28 ]
  %.12644 = phi ptr [ %.12645, %29 ], [ %.126, %28 ]
  %.02742 = phi ptr [ %.02743, %29 ], [ %.027, %28 ]
  tail call void @CRYPTO_free(ptr noundef %.02742, ptr noundef nonnull @.str, i32 noundef 74) #12
  tail call void @CRYPTO_free(ptr noundef %.12644, ptr noundef nonnull @.str, i32 noundef 75) #12
  tail call void @CRYPTO_free(ptr noundef %.02446, ptr noundef nonnull @.str, i32 noundef 76) #12
  br label %32

32:                                               ; preds = %23, %31
  %.0 = phi i32 [ 0, %31 ], [ 1, %23 ]
  ret i32 %.0
}